; Function Attrs: mustprogress nounwind uwtable
define internal fastcc void @_ZL17getPrioritySuffixB5cxx11j(ptr dead_on_unwind noalias nonnull writable align 8 %0, i32 noundef %1) unnamed_addr #0 {
  %3 = alloca [21 x i8], align 16
  %4 = alloca %"class.std::allocator", align 1
  %5 = alloca %"class.std::__cxx11::basic_string", align 8
  %6 = alloca %"class.std::__cxx11::basic_string", align 8
  %7 = alloca %"class.std::allocator", align 1
  tail call void @llvm.experimental.noalias.scope.decl(metadata !71)
  call void @llvm.lifetime.start.p0(i64 21, ptr nonnull %3)
  call void @llvm.lifetime.start.p0(i64 1, ptr nonnull %4)
  %8 = getelementptr inbounds nuw i8, ptr %3, i64 21
  %9 = icmp eq i32 %1, 0
  br i1 %9, label %.thread.i, label %.lr.ph.i.preheader

.lr.ph.i.preheader:                               ; preds = %2
  %10 = zext i32 %1 to i64
  br label %.lr.ph.i

.thread.i:                                        ; preds = %2
  %11 = getelementptr inbounds nuw i8, ptr %3, i64 20
  store i8 48, ptr %11, align 4, !noalias !71
  br label %_ZN4llvm6utostrB5cxx11Emb.exit

.lr.ph.i:                                         ; preds = %.lr.ph.i.preheader, %.lr.ph.i
  %.111.i = phi ptr [ %15, %.lr.ph.i ], [ %8, %.lr.ph.i.preheader ]
  %.0810.i = phi i64 [ %16, %.lr.ph.i ], [ %10, %.lr.ph.i.preheader ]
  %12 = urem i64 %.0810.i, 10
  %13 = trunc nuw nsw i64 %12 to i8
  %14 = or disjoint i8 %13, 48
  %15 = getelementptr inbounds i8, ptr %.111.i, i64 -1
  store i8 %14, ptr %15, align 1, !noalias !71
  %16 = udiv i64 %.0810.i, 10
  %.not.i = icmp samesign ult i64 %.0810.i, 10
  br i1 %.not.i, label %_ZN4llvm6utostrB5cxx11Emb.exit, label %.lr.ph.i, !llvm.loop !74

_ZN4llvm6utostrB5cxx11Emb.exit:                   ; preds = %.lr.ph.i, %.thread.i
  %.1.lcssa.i = phi ptr [ %11, %.thread.i ], [ %15, %.lr.ph.i ]
  call void @_ZNSaIcEC1Ev(ptr noundef nonnull align 1 dereferenceable(1) %4) #18, !noalias !71
  %17 = call noundef ptr @_ZNSt7__cxx1112basic_stringIcSt11char_traitsIcESaIcEE13_M_local_dataEv(ptr noundef nonnull align 8 dereferenceable(32) %0) #18
  call void @_ZNSt7__cxx1112basic_stringIcSt11char_traitsIcESaIcEE12_Alloc_hiderC1EPcRKS3_(ptr noundef nonnull align 8 dereferenceable(32) %0, ptr noundef %17, ptr noundef nonnull align 1 dereferenceable(1) %4) #18
  %18 = getelementptr inbounds nuw i8, ptr %0, i64 8
  store i64 0, ptr %18, align 8, !alias.scope !71
  call void @_ZNSt7__cxx1112basic_stringIcSt11char_traitsIcESaIcEE12_M_constructIPcEEvT_S7_St20forward_iterator_tag(ptr noundef nonnull align 8 dereferenceable(32) %0, ptr noundef nonnull %.1.lcssa.i, ptr noundef nonnull %8)
  call void @_ZNSaIcED1Ev(ptr noundef nonnull align 1 dereferenceable(1) %4) #18
  call void @llvm.lifetime.end.p0(i64 21, ptr nonnull %3)
  call void @llvm.lifetime.end.p0(i64 1, ptr nonnull %4)
  %19 = call noundef i64 @_ZNKSt7__cxx1112basic_stringIcSt11char_traitsIcESaIcEE4sizeEv(ptr noundef nonnull align 8 dereferenceable(32) %0) #18
  %20 = sub i64 6, %19
  call void @_ZNSaIcEC1Ev(ptr noundef nonnull align 1 dereferenceable(1) %7) #18
  %21 = call noundef ptr @_ZNSt7__cxx1112basic_stringIcSt11char_traitsIcESaIcEE13_M_local_dataEv(ptr noundef nonnull align 8 dereferenceable(32) %6) #18
  call void @_ZNSt7__cxx1112basic_stringIcSt11char_traitsIcESaIcEE12_Alloc_hiderC1EPcRKS3_(ptr noundef nonnull align 8 dereferenceable(32) %6, ptr noundef %21, ptr noundef nonnull align 1 dereferenceable(1) %7) #18
  call void @_ZNSt7__cxx1112basic_stringIcSt11char_traitsIcESaIcEE12_M_constructEmc(ptr noundef nonnull align 8 dereferenceable(32) %6, i64 noundef %20, i8 noundef signext 48) #18
  %22 = call noundef nonnull align 8 dereferenceable(32) ptr @_ZNSt7__cxx1112basic_stringIcSt11char_traitsIcESaIcEE6appendERKS4_(ptr noundef nonnull align 8 dereferenceable(32) %6, ptr noundef nonnull align 8 dereferenceable(32) %0) #18, !noalias !75
  call void @_ZNSt7__cxx1112basic_stringIcSt11char_traitsIcESaIcEEC1EOS4_(ptr noundef nonnull align 8 dereferenceable(32) %5, ptr noundef nonnull align 8 dereferenceable(32) %22) #18
  %23 = call noundef nonnull align 8 dereferenceable(32) ptr @_ZNSt7__cxx1112basic_stringIcSt11char_traitsIcESaIcEEaSEOS4_(ptr noundef nonnull align 8 dereferenceable(32) %0, ptr noundef nonnull align 8 dereferenceable(32) %5) #18
  call void @_ZNSt7__cxx1112basic_stringIcSt11char_traitsIcESaIcEED1Ev(ptr noundef nonnull align 8 dereferenceable(32) %5) #18
  call void @_ZNSt7__cxx1112basic_stringIcSt11char_traitsIcESaIcEED1Ev(ptr noundef nonnull align 8 dereferenceable(32) %6) #18
  call void @_ZNSaIcED1Ev(ptr noundef nonnull align 1 dereferenceable(1) %7) #18
  ret void
}